target datalayout = "e-m:e-p270:32:32-p271:32:32-p272:64:64-i64:64-i128:128-f80:128-n8:16:32:64-S128"
target triple = "x86_64-pc-linux-gnu"

%"class.arrow::DataType" = type { %"class.arrow::detail::Fingerprintable", %"class.std::enable_shared_from_this", i32, %"class.std::vector.0" }
%"class.arrow::detail::Fingerprintable" = type { ptr, %"struct.std::atomic", %"struct.std::atomic" }
%"struct.std::atomic" = type { %"struct.std::__atomic_base" }
%"struct.std::__atomic_base" = type { ptr }
%"class.std::enable_shared_from_this" = type { %"class.std::weak_ptr" }
%"class.std::weak_ptr" = type { %"class.std::__weak_ptr" }
%"class.std::__weak_ptr" = type { ptr, %"class.std::__weak_count" }
%"class.std::__weak_count" = type { ptr }
%"class.std::vector.0" = type { %"struct.std::_Vector_base.1" }
%"struct.std::_Vector_base.1" = type { %"struct.std::_Vector_base<std::shared_ptr<arrow::Field>, std::allocator<std::shared_ptr<arrow::Field>>>::_Vector_impl" }
%"struct.std::_Vector_base<std::shared_ptr<arrow::Field>, std::allocator<std::shared_ptr<arrow::Field>>>::_Vector_impl" = type { %"struct.std::_Vector_base<std::shared_ptr<arrow::Field>, std::allocator<std::shared_ptr<arrow::Field>>>::_Vector_impl_data" }
%"struct.std::_Vector_base<std::shared_ptr<arrow::Field>, std::allocator<std::shared_ptr<arrow::Field>>>::_Vector_impl_data" = type { ptr, ptr, ptr }
%"class.std::__shared_count" = type { ptr }
%"class.std::shared_ptr" = type { %"class.std::__shared_ptr" }
%"class.std::__shared_ptr" = type { ptr, %"class.std::__shared_count" }
%"class.arrow::FixedSizeListType" = type <{ %"class.arrow::BaseListType", i32, [4 x i8] }>
%"class.arrow::BaseListType" = type { %"class.arrow::NestedType" }
%"class.arrow::NestedType" = type { %"class.arrow::DataType" }
%"class.std::__cxx11::basic_string" = type { %"struct.std::__cxx11::basic_string<char>::_Alloc_hider", i64, %union.anon }
%"struct.std::__cxx11::basic_string<char>::_Alloc_hider" = type { ptr }
%union.anon = type { i64, [8 x i8] }
%"class.std::shared_ptr.44" = type { %"class.std::__shared_ptr.45" }
%"class.std::__shared_ptr.45" = type { ptr, %"class.std::__shared_count" }
%"class.arrow::Field" = type { %"class.arrow::detail::Fingerprintable", %"class.std::__cxx11::basic_string", %"class.std::shared_ptr", i8, %"class.std::shared_ptr.49" }
%"class.std::shared_ptr.49" = type { %"class.std::__shared_ptr.50" }
%"class.std::__shared_ptr.50" = type { ptr, %"class.std::__shared_count" }

; Function Attrs: mustprogress nounwind uwtable
define linkonce_odr noundef ptr @_ZNKSt12__shared_ptrIN5arrow5FieldELN9__gnu_cxx12_Lock_policyE2EE3getEv(ptr noundef nonnull align 8 dereferenceable(16) %0) #3 comdat align 2 {
  %2 = alloca ptr, align 8
  store ptr %0, ptr %2, align 8, !tbaa !217
  %3 = load ptr, ptr %2, align 8
  %4 = getelementptr inbounds nuw %"class.std::__shared_ptr.45", ptr %3, i32 0, i32 0
  %5 = load ptr, ptr %4, align 8, !tbaa !219
  ret ptr %5
}

; Function Attrs: mustprogress nounwind uwtable
define linkonce_odr noundef ptr @_ZNKSt19__shared_ptr_accessIN5arrow5FieldELN9__gnu_cxx12_Lock_policyE2ELb0ELb0EE6_M_getEv(ptr noundef nonnull align 1 dereferenceable(1) %0) #3 comdat align 2 {
  %2 = alloca ptr, align 8
  store ptr %0, ptr %2, align 8, !tbaa !213
  %3 = load ptr, ptr %2, align 8
  %4 = call noundef ptr @_ZNKSt12__shared_ptrIN5arrow5FieldELN9__gnu_cxx12_Lock_policyE2EE3getEv(ptr noundef nonnull align 8 dereferenceable(16) %3) #20
  ret ptr %4
}

; Function Attrs: mustprogress nounwind uwtable
define linkonce_odr noundef nonnull align 8 dereferenceable(16) ptr @_ZNK5arrow5Field4typeEv(ptr noundef nonnull align 8 dereferenceable(96) %0) #3 comdat align 2 {
  %2 = alloca ptr, align 8
  store ptr %0, ptr %2, align 8, !tbaa !215
  %3 = load ptr, ptr %2, align 8
  %4 = getelementptr inbounds nuw %"class.arrow::Field", ptr %3, i32 0, i32 2
  ret ptr %4
}

; Function Attrs: mustprogress nounwind uwtable
define linkonce_odr noundef ptr @_ZNKSt19__shared_ptr_accessIN5arrow5FieldELN9__gnu_cxx12_Lock_policyE2ELb0ELb0EEptEv(ptr noundef nonnull align 1 dereferenceable(1) %0) #3 comdat align 2 {
  %2 = alloca ptr, align 8
  store ptr %0, ptr %2, align 8, !tbaa !213
  %3 = load ptr, ptr %2, align 8
  %4 = call noundef ptr @_ZNKSt19__shared_ptr_accessIN5arrow5FieldELN9__gnu_cxx12_Lock_policyE2ELb0ELb0EE6_M_getEv(ptr noundef nonnull align 1 dereferenceable(1) %3) #20
  ret ptr %4
}

; Function Attrs: mustprogress nounwind uwtable
define linkonce_odr noundef nonnull align 8 dereferenceable(16) ptr @_ZNKSt6vectorISt10shared_ptrIN5arrow5FieldEESaIS3_EEixEm(ptr noundef nonnull align 8 dereferenceable(24) %0, i64 noundef %1) #3 comdat align 2 {
  %3 = alloca ptr, align 8
  %4 = alloca i64, align 8
  store ptr %0, ptr %3, align 8, !tbaa !210
  store i64 %1, ptr %4, align 8, !tbaa !50
  %5 = load ptr, ptr %3, align 8
  %6 = getelementptr inbounds nuw %"struct.std::_Vector_base.1", ptr %5, i32 0, i32 0
  %7 = getelementptr inbounds nuw %"struct.std::_Vector_base<std::shared_ptr<arrow::Field>, std::allocator<std::shared_ptr<arrow::Field>>>::_Vector_impl_data", ptr %6, i32 0, i32 0
  %8 = load ptr, ptr %7, align 8, !tbaa !212
  %9 = load i64, ptr %4, align 8, !tbaa !50
  %10 = getelementptr inbounds nuw %"class.std::shared_ptr.44", ptr %8, i64 %9
  ret ptr %10
}

; Function Attrs: inlinehint mustprogress nounwind uwtable
define linkonce_odr noundef ptr @_ZN5arrow8internal12checked_castIPKNS_17FixedSizeListTypeERPNS_8DataTypeEEET_OT0_(ptr noundef nonnull align 8 dereferenceable(8) %0) #4 comdat {
  %2 = alloca ptr, align 8
  store ptr %0, ptr %2, align 8, !tbaa !147
  %3 = load ptr, ptr %2, align 8, !tbaa !147
  %4 = load ptr, ptr %3, align 8, !tbaa !22
  ret ptr %4
}

; Function Attrs: mustprogress nounwind uwtable
define linkonce_odr noundef ptr @_ZNKSt12__shared_ptrIN5arrow8DataTypeELN9__gnu_cxx12_Lock_policyE2EE3getEv(ptr noundef nonnull align 8 dereferenceable(16) %0) #3 comdat align 2 {
  %2 = alloca ptr, align 8
  store ptr %0, ptr %2, align 8, !tbaa !191
  %3 = load ptr, ptr %2, align 8
  %4 = getelementptr inbounds nuw %"class.std::__shared_ptr", ptr %3, i32 0, i32 0
  %5 = load ptr, ptr %4, align 8, !tbaa !193
  ret ptr %5
}

; Function Attrs: mustprogress uwtable
define linkonce_odr noundef nonnull align 8 dereferenceable(16) ptr @_ZNK5arrow12BaseListType10value_typeEv(ptr noundef nonnull align 8 dereferenceable(72) %0) #0 comdat align 2 {
  %2 = alloca ptr, align 8
  store ptr %0, ptr %2, align 8, !tbaa !124
  %3 = load ptr, ptr %2, align 8
  %4 = getelementptr inbounds nuw %"class.arrow::DataType", ptr %3, i32 0, i32 3
  %5 = call noundef nonnull align 8 dereferenceable(16) ptr @_ZNKSt6vectorISt10shared_ptrIN5arrow5FieldEESaIS3_EEixEm(ptr noundef nonnull align 8 dereferenceable(24) %4, i64 noundef 0) #20
  %6 = call noundef ptr @_ZNKSt19__shared_ptr_accessIN5arrow5FieldELN9__gnu_cxx12_Lock_policyE2ELb0ELb0EEptEv(ptr noundef nonnull align 1 dereferenceable(1) %5) #20
  %7 = call noundef nonnull align 8 dereferenceable(16) ptr @_ZNK5arrow5Field4typeEv(ptr noundef nonnull align 8 dereferenceable(96) %6)
  ret ptr %7
}

; Function Attrs: mustprogress nounwind uwtable
define linkonce_odr noundef i32 @_ZNK5arrow17FixedSizeListType9list_sizeEv(ptr noundef nonnull align 8 dereferenceable(76) %0) #3 comdat align 2 {
  %2 = alloca ptr, align 8
  store ptr %0, ptr %2, align 8, !tbaa !32
  %3 = load ptr, ptr %2, align 8
  %4 = getelementptr inbounds nuw %"class.arrow::FixedSizeListType", ptr %3, i32 0, i32 1
  %5 = load i32, ptr %4, align 8, !tbaa !131
  ret i32 %5
}

; Function Attrs: mustprogress nounwind uwtable
define linkonce_odr noundef zeroext i1 @_ZN5arrow20is_fixed_size_binaryENS_4Type4typeE(i32 noundef %0) #3 comdat {
  %2 = alloca i1, align 1
  %3 = alloca i32, align 4
  store i32 %0, ptr %3, align 4, !tbaa !26
  %4 = load i32, ptr %3, align 4, !tbaa !26
  switch i32 %4, label %6 [
    i32 43, label %5
    i32 44, label %5
    i32 23, label %5
    i32 24, label %5
    i32 15, label %5
  ]

5:                                                ; preds = %1, %1, %1, %1, %1
  store i1 true, ptr %2, align 1
  br label %8

6:                                                ; preds = %1
  br label %7

7:                                                ; preds = %6
  store i1 false, ptr %2, align 1
  br label %8

8:                                                ; preds = %7, %5
  %9 = load i1, ptr %2, align 1
  ret i1 %9
}

; Function Attrs: mustprogress nounwind uwtable
define linkonce_odr noundef zeroext i1 @_ZN5arrow13is_dictionaryENS_4Type4typeE(i32 noundef %0) #3 comdat {
  %2 = alloca i32, align 4
  store i32 %0, ptr %2, align 4, !tbaa !26
  %3 = load i32, ptr %2, align 4, !tbaa !26
  %4 = icmp eq i32 %3, 29
  ret i1 %4
}

; Function Attrs: mustprogress nounwind uwtable
define linkonce_odr noundef zeroext i1 @_ZN5arrow12is_primitiveENS_4Type4typeE(i32 noundef %0) #3 comdat {
  %2 = alloca i1, align 1
  %3 = alloca i32, align 4
  store i32 %0, ptr %3, align 4, !tbaa !26
  %4 = load i32, ptr %3, align 4, !tbaa !26
  switch i32 %4, label %6 [
    i32 1, label %5
    i32 2, label %5
    i32 3, label %5
    i32 4, label %5
    i32 5, label %5
    i32 6, label %5
    i32 7, label %5
    i32 8, label %5
    i32 9, label %5
    i32 10, label %5
    i32 11, label %5
    i32 12, label %5
    i32 16, label %5
    i32 17, label %5
    i32 19, label %5
    i32 20, label %5
    i32 18, label %5
    i32 33, label %5
    i32 21, label %5
    i32 37, label %5
    i32 22, label %5
  ]

5:                                                ; preds = %1, %1, %1, %1, %1, %1, %1, %1, %1, %1, %1, %1, %1, %1, %1, %1, %1, %1, %1, %1, %1
  store i1 true, ptr %2, align 1
  br label %8

6:                                                ; preds = %1
  br label %7

7:                                                ; preds = %6
  store i1 false, ptr %2, align 1
  br label %8

8:                                                ; preds = %7, %5
  %9 = load i1, ptr %2, align 1
  ret i1 %9
}

; Function Attrs: mustprogress uwtable
define internal noundef i64 @_ZN5arrow4utilL24FixedWidthInBitsFallbackERKNS_17FixedSizeListTypeE(ptr noundef nonnull align 8 dereferenceable(76) %0) #0 {
  %2 = alloca i64, align 8
  %3 = alloca ptr, align 8
  %4 = alloca ptr, align 8
  %5 = alloca i64, align 8
  %6 = alloca ptr, align 8
  %7 = alloca i32, align 4
  %8 = alloca i32, align 4
  %9 = alloca i64, align 8
  store ptr %0, ptr %3, align 8, !tbaa !32
  call void @llvm.lifetime.start.p0(i64 8, ptr %4) #20
  %10 = load ptr, ptr %3, align 8, !tbaa !32
  store ptr %10, ptr %4, align 8, !tbaa !32
  call void @llvm.lifetime.start.p0(i64 8, ptr %5) #20
  %11 = load ptr, ptr %4, align 8, !tbaa !32
  %12 = call noundef i32 @_ZNK5arrow17FixedSizeListType9list_sizeEv(ptr noundef nonnull align 8 dereferenceable(76) %11)
  %13 = sext i32 %12 to i64
  store i64 %13, ptr %5, align 8, !tbaa !50
  call void @llvm.lifetime.start.p0(i64 8, ptr %6) #20
  %14 = load ptr, ptr %4, align 8, !tbaa !32
  %15 = call noundef nonnull align 8 dereferenceable(16) ptr @_ZNK5arrow12BaseListType10value_typeEv(ptr noundef nonnull align 8 dereferenceable(72) %14)
  %16 = call noundef ptr @_ZNKSt12__shared_ptrIN5arrow8DataTypeELN9__gnu_cxx12_Lock_policyE2EE3getEv(ptr noundef nonnull align 8 dereferenceable(16) %15) #20
  store ptr %16, ptr %6, align 8, !tbaa !22
  br label %17

17:                                               ; preds = %55, %1
  call void @llvm.lifetime.start.p0(i64 4, ptr %7) #20
  %18 = load ptr, ptr %6, align 8, !tbaa !22
  %19 = call noundef i32 @_ZNK5arrow8DataType2idEv(ptr noundef nonnull align 8 dereferenceable(72) %18)
  store i32 %19, ptr %7, align 4, !tbaa !26
  %20 = load i32, ptr %7, align 4, !tbaa !26
  %21 = icmp eq i32 %20, 32
  br i1 %21, label %22, label %32

22:                                               ; preds = %17
  %23 = call noundef ptr @_ZN5arrow8internal12checked_castIPKNS_17FixedSizeListTypeERPNS_8DataTypeEEET_OT0_(ptr noundef nonnull align 8 dereferenceable(8) %6)
  store ptr %23, ptr %4, align 8, !tbaa !32
  %24 = load ptr, ptr %4, align 8, !tbaa !32
  %25 = call noundef i32 @_ZNK5arrow17FixedSizeListType9list_sizeEv(ptr noundef nonnull align 8 dereferenceable(76) %24)
  %26 = sext i32 %25 to i64
  %27 = load i64, ptr %5, align 8, !tbaa !50
  %28 = mul nsw i64 %27, %26
  store i64 %28, ptr %5, align 8, !tbaa !50
  %29 = load ptr, ptr %4, align 8, !tbaa !32
  %30 = call noundef nonnull align 8 dereferenceable(16) ptr @_ZNK5arrow12BaseListType10value_typeEv(ptr noundef nonnull align 8 dereferenceable(72) %29)
  %31 = call noundef ptr @_ZNKSt12__shared_ptrIN5arrow8DataTypeELN9__gnu_cxx12_Lock_policyE2EE3getEv(ptr noundef nonnull align 8 dereferenceable(16) %30) #20
  store ptr %31, ptr %6, align 8, !tbaa !22
  store i32 3, ptr %8, align 4
  br label %55, !llvm.loop !55

32:                                               ; preds = %17
  %33 = load i32, ptr %7, align 4, !tbaa !26
  %34 = call noundef zeroext i1 @_ZN5arrow14is_fixed_widthENS_4Type4typeE(i32 noundef %33)
  br i1 %34, label %35, label %54

35:                                               ; preds = %32
  call void @llvm.lifetime.start.p0(i64 8, ptr %9) #20
  %36 = load i64, ptr %5, align 8, !tbaa !50
  %37 = load ptr, ptr %6, align 8, !tbaa !22
  %38 = load ptr, ptr %37, align 8, !tbaa !28
  %39 = getelementptr inbounds ptr, ptr %38, i64 9
  %40 = load ptr, ptr %39, align 8
  %41 = call noundef i32 %40(ptr noundef nonnull align 8 dereferenceable(72) %37)
  %42 = sext i32 %41 to i64
  %43 = mul nsw i64 %36, %42
  store i64 %43, ptr %9, align 8, !tbaa !50
  br label %44

44:                                               ; preds = %45, %35
  br i1 false, label %45, label %46

45:                                               ; preds = %44
  br label %44, !llvm.loop !56

46:                                               ; preds = %44
  br label %47

47:                                               ; preds = %48, %46
  br i1 false, label %48, label %49

48:                                               ; preds = %47
  br label %47, !llvm.loop !57

49:                                               ; preds = %47
  br label %50

50:                                               ; preds = %51, %49
  br i1 false, label %51, label %52

51:                                               ; preds = %50
  br label %50, !llvm.loop !58

52:                                               ; preds = %50
  %53 = load i64, ptr %9, align 8, !tbaa !50
  store i64 %53, ptr %2, align 8
  store i32 1, ptr %8, align 4
  call void @llvm.lifetime.end.p0(i64 8, ptr %9) #20
  br label %55

54:                                               ; preds = %32
  store i32 2, ptr %8, align 4
  br label %55

55:                                               ; preds = %54, %52, %22
  call void @llvm.lifetime.end.p0(i64 4, ptr %7) #20
  %56 = load i32, ptr %8, align 4
  switch i32 %56, label %57 [
    i32 3, label %17
  ]

57:                                               ; preds = %55
  call void @llvm.lifetime.end.p0(i64 8, ptr %6) #20
  %58 = load i32, ptr %8, align 4
  switch i32 %58, label %60 [
    i32 2, label %59
  ]

59:                                               ; preds = %57
  store i64 -1, ptr %2, align 8
  store i32 1, ptr %8, align 4
  br label %60

60:                                               ; preds = %59, %57
  call void @llvm.lifetime.end.p0(i64 8, ptr %5) #20
  call void @llvm.lifetime.end.p0(i64 8, ptr %4) #20
  %61 = load i64, ptr %2, align 8
  ret i64 %61
}

; Function Attrs: inlinehint mustprogress nounwind uwtable
define linkonce_odr noundef nonnull align 8 dereferenceable(76) ptr @_ZN5arrow8internal12checked_castIRKNS_17FixedSizeListTypeERKNS_8DataTypeEEET_OT0_(ptr noundef nonnull align 8 dereferenceable(72) %0) #4 comdat {
  %2 = alloca ptr, align 8
  store ptr %0, ptr %2, align 8, !tbaa !22
  %3 = load ptr, ptr %2, align 8, !tbaa !22
  ret ptr %3
}

; Function Attrs: mustprogress uwtable
define linkonce_odr noundef zeroext i1 @_ZN5arrow14is_fixed_widthENS_4Type4typeE(i32 noundef %0) #0 comdat {
  %2 = alloca i32, align 4
  store i32 %0, ptr %2, align 4, !tbaa !26
  %3 = load i32, ptr %2, align 4, !tbaa !26
  %4 = call noundef zeroext i1 @_ZN5arrow12is_primitiveENS_4Type4typeE(i32 noundef %3)
  br i1 %4, label %11, label %5

5:                                                ; preds = %1
  %6 = load i32, ptr %2, align 4, !tbaa !26
  %7 = call noundef zeroext i1 @_ZN5arrow13is_dictionaryENS_4Type4typeE(i32 noundef %6)
  br i1 %7, label %11, label %8

8:                                                ; preds = %5
  %9 = load i32, ptr %2, align 4, !tbaa !26
  %10 = call noundef zeroext i1 @_ZN5arrow20is_fixed_size_binaryENS_4Type4typeE(i32 noundef %9)
  br label %11

11:                                               ; preds = %8, %5, %1
  %12 = phi i1 [ true, %5 ], [ true, %1 ], [ %10, %8 ]
  ret i1 %12
}

; Function Attrs: mustprogress nounwind uwtable
define linkonce_odr noundef i32 @_ZNK5arrow8DataType2idEv(ptr noundef nonnull align 8 dereferenceable(72) %0) #3 comdat align 2 {
  %2 = alloca ptr, align 8
  store ptr %0, ptr %2, align 8, !tbaa !22
  %3 = load ptr, ptr %2, align 8
  %4 = getelementptr inbounds nuw %"class.arrow::DataType", ptr %3, i32 0, i32 2
  %5 = load i32, ptr %4, align 8, !tbaa !34
  ret i32 %5
}

; Function Attrs: mustprogress uwtable
define noundef i64 @_ZN5arrow4util16FixedWidthInBitsERKNS_8DataTypeE(ptr noundef nonnull align 8 dereferenceable(72) %0) #0 {
  %2 = alloca i64, align 8
  %3 = alloca ptr, align 8
  %4 = alloca i32, align 4
  %5 = alloca i32, align 4
  %6 = alloca ptr, align 8
  store ptr %0, ptr %3, align 8, !tbaa !22
  call void @llvm.lifetime.start.p0(i64 4, ptr %4) #20
  %7 = load ptr, ptr %3, align 8, !tbaa !22
  %8 = call noundef i32 @_ZNK5arrow8DataType2idEv(ptr noundef nonnull align 8 dereferenceable(72) %7)
  store i32 %8, ptr %4, align 4, !tbaa !26
  %9 = load i32, ptr %4, align 4, !tbaa !26
  %10 = call noundef zeroext i1 @_ZN5arrow14is_fixed_widthENS_4Type4typeE(i32 noundef %9)
  br i1 %10, label %11, label %18

11:                                               ; preds = %1
  %12 = load ptr, ptr %3, align 8, !tbaa !22
  %13 = load ptr, ptr %12, align 8, !tbaa !28
  %14 = getelementptr inbounds ptr, ptr %13, i64 9
  %15 = load ptr, ptr %14, align 8
  %16 = call noundef i32 %15(ptr noundef nonnull align 8 dereferenceable(72) %12)
  %17 = sext i32 %16 to i64
  store i64 %17, ptr %2, align 8
  store i32 1, ptr %5, align 4
  br label %27

18:                                               ; preds = %1
  %19 = load i32, ptr %4, align 4, !tbaa !26
  %20 = icmp eq i32 %19, 32
  br i1 %20, label %21, label %26

21:                                               ; preds = %18
  call void @llvm.lifetime.start.p0(i64 8, ptr %6) #20
  %22 = load ptr, ptr %3, align 8, !tbaa !22
  %23 = call noundef nonnull align 8 dereferenceable(76) ptr @_ZN5arrow8internal12checked_castIRKNS_17FixedSizeListTypeERKNS_8DataTypeEEET_OT0_(ptr noundef nonnull align 8 dereferenceable(72) %22)
  store ptr %23, ptr %6, align 8, !tbaa !32
  %24 = load ptr, ptr %6, align 8, !tbaa !32
  %25 = call noundef i64 @_ZN5arrow4utilL24FixedWidthInBitsFallbackERKNS_17FixedSizeListTypeE(ptr noundef nonnull align 8 dereferenceable(76) %24)
  store i64 %25, ptr %2, align 8
  store i32 1, ptr %5, align 4
  call void @llvm.lifetime.end.p0(i64 8, ptr %6) #20
  br label %27

26:                                               ; preds = %18
  store i64 -1, ptr %2, align 8
  store i32 1, ptr %5, align 4
  br label %27

27:                                               ; preds = %26, %21, %11
  call void @llvm.lifetime.end.p0(i64 4, ptr %4) #20
  %28 = load i64, ptr %2, align 8
  ret i64 %28
}