; Function Attrs: mustprogress uwtable
define noundef i64 @_ZN5arrow4util16FixedWidthInBitsERKNS_8DataTypeE(ptr noundef nonnull align 8 dereferenceable(72) %0) local_unnamed_addr #0 {
  %2 = getelementptr inbounds nuw i8, ptr %0, i64 40
  %3 = load i32, ptr %2, align 8, !tbaa !15
  switch i32 %3, label %_ZN5arrow4utilL24FixedWidthInBitsFallbackERKNS_17FixedSizeListTypeE.exit [
    i32 1, label %4
    i32 2, label %4
    i32 3, label %4
    i32 4, label %4
    i32 5, label %4
    i32 6, label %4
    i32 7, label %4
    i32 8, label %4
    i32 9, label %4
    i32 10, label %4
    i32 11, label %4
    i32 12, label %4
    i32 16, label %4
    i32 17, label %4
    i32 19, label %4
    i32 20, label %4
    i32 18, label %4
    i32 33, label %4
    i32 21, label %4
    i32 37, label %4
    i32 22, label %4
    i32 29, label %4
    i32 43, label %4
    i32 44, label %4
    i32 23, label %4
    i32 24, label %4
    i32 15, label %4
    i32 32, label %10
  ]

4:                                                ; preds = %1, %1, %1, %1, %1, %1, %1, %1, %1, %1, %1, %1, %1, %1, %1, %1, %1, %1, %1, %1, %1, %1, %1, %1, %1, %1, %1
  %5 = load ptr, ptr %0, align 8, !tbaa !36
  %6 = getelementptr inbounds nuw i8, ptr %5, i64 72
  %7 = load ptr, ptr %6, align 8
  %8 = tail call noundef i32 %7(ptr noundef nonnull align 8 dereferenceable(72) %0)
  %9 = sext i32 %8 to i64
  br label %_ZN5arrow4utilL24FixedWidthInBitsFallbackERKNS_17FixedSizeListTypeE.exit

10:                                               ; preds = %1
  %11 = getelementptr inbounds nuw i8, ptr %0, i64 72
  %.val6 = load i32, ptr %11, align 8, !tbaa !38
  %12 = sext i32 %.val6 to i64
  br label %13

13:                                               ; preds = %_ZN5arrow14is_fixed_widthENS_4Type4typeE.exit.i, %10
  %.pn = phi ptr [ %0, %10 ], [ %.03.i, %_ZN5arrow14is_fixed_widthENS_4Type4typeE.exit.i ]
  %.014.i = phi i64 [ %12, %10 ], [ %19, %_ZN5arrow14is_fixed_widthENS_4Type4typeE.exit.i ]
  %.val.val.pn.in.in = getelementptr inbounds nuw i8, ptr %.pn, i64 48
  %.val.val.pn.in = load ptr, ptr %.val.val.pn.in.in, align 8, !tbaa !43
  %.val.val.pn = load ptr, ptr %.val.val.pn.in, align 8, !tbaa !44
  %.03.i.in = getelementptr i8, ptr %.val.val.pn, i64 56
  %.03.i = load ptr, ptr %.03.i.in, align 8, !tbaa !48
  %14 = getelementptr inbounds nuw i8, ptr %.03.i, i64 40
  %15 = load i32, ptr %14, align 8, !tbaa !15
  switch i32 %15, label %_ZN5arrow4utilL24FixedWidthInBitsFallbackERKNS_17FixedSizeListTypeE.exit [
    i32 32, label %_ZN5arrow14is_fixed_widthENS_4Type4typeE.exit.i
    i32 1, label %20
    i32 2, label %20
    i32 3, label %20
    i32 4, label %20
    i32 5, label %20
    i32 6, label %20
    i32 7, label %20
    i32 8, label %20
    i32 9, label %20
    i32 10, label %20
    i32 11, label %20
    i32 12, label %20
    i32 16, label %20
    i32 17, label %20
    i32 19, label %20
    i32 20, label %20
    i32 18, label %20
    i32 33, label %20
    i32 21, label %20
    i32 37, label %20
    i32 22, label %20
    i32 29, label %20
    i32 43, label %20
    i32 44, label %20
    i32 23, label %20
    i32 24, label %20
    i32 15, label %20
  ]

_ZN5arrow14is_fixed_widthENS_4Type4typeE.exit.i:  ; preds = %13
  %16 = getelementptr inbounds nuw i8, ptr %.03.i, i64 72
  %17 = load i32, ptr %16, align 8, !tbaa !38
  %18 = sext i32 %17 to i64
  %19 = mul nsw i64 %.014.i, %18
  br label %13

20:                                               ; preds = %13, %13, %13, %13, %13, %13, %13, %13, %13, %13, %13, %13, %13, %13, %13, %13, %13, %13, %13, %13, %13, %13, %13, %13, %13, %13, %13
  %21 = load ptr, ptr %.03.i, align 8, !tbaa !36
  %22 = getelementptr inbounds nuw i8, ptr %21, i64 72
  %23 = load ptr, ptr %22, align 8
  %24 = tail call noundef i32 %23(ptr noundef nonnull align 8 dereferenceable(72) %.03.i)
  %25 = sext i32 %24 to i64
  %26 = mul nsw i64 %.014.i, %25
  br label %_ZN5arrow4utilL24FixedWidthInBitsFallbackERKNS_17FixedSizeListTypeE.exit

_ZN5arrow4utilL24FixedWidthInBitsFallbackERKNS_17FixedSizeListTypeE.exit: ; preds = %13, %1, %20, %4
  %.0 = phi i64 [ %9, %4 ], [ %26, %20 ], [ -1, %1 ], [ -1, %13 ]
  ret i64 %.0
}